; Function Attrs: mustprogress nofree norecurse nosync nounwind willreturn memory(read, inaccessiblemem: none) uwtable
define hidden noundef zeroext i1 @_ZNK2lp10int_solver12value_is_intEj(ptr noundef nonnull readonly align 8 captures(none) dereferenceable(32) %0, i32 noundef %1) local_unnamed_addr #9 align 2 {
  %3 = load ptr, ptr %0, align 8, !tbaa !43
  %4 = getelementptr inbounds nuw i8, ptr %3, i64 536
  %5 = load ptr, ptr %4, align 8, !tbaa !244
  %6 = zext i32 %1 to i64
  %7 = getelementptr inbounds nuw %"struct.lp::numeric_pair", ptr %5, i64 %6
  %8 = getelementptr inbounds nuw i8, ptr %7, i64 16
  %9 = getelementptr inbounds nuw i8, ptr %7, i64 20
  %10 = load i8, ptr %9, align 4
  %11 = and i8 %10, 1
  %12 = icmp eq i8 %11, 0
  %13 = load i32, ptr %8, align 8
  %14 = icmp eq i32 %13, 1
  %15 = select i1 %12, i1 %14, i1 false
  br i1 %15, label %16, label %_ZNK2lp10lar_solver19column_value_is_intEj.exit

16:                                               ; preds = %2
  %17 = getelementptr inbounds nuw i8, ptr %7, i64 32
  %18 = load i32, ptr %17, align 8, !tbaa !6
  %19 = icmp eq i32 %18, 0
  br label %_ZNK2lp10lar_solver19column_value_is_intEj.exit

_ZNK2lp10lar_solver19column_value_is_intEj.exit:  ; preds = %2, %16
  %20 = phi i1 [ false, %2 ], [ %19, %16 ]
  ret i1 %20
}